target datalayout = "e-m:e-p270:32:32-p271:32:32-p272:64:64-i64:64-i128:128-f80:128-n8:16:32:64-S128"
target triple = "x86_64-pc-linux-gnu"

%struct.VPXRangeCoder = type { i32, i32, ptr, ptr, i32, i32 }

@ff_vpx_norm_shift = external constant [256 x i8], align 16

; Function Attrs: alwaysinline nounwind willreturn memory(none) uwtable
define internal zeroext i16 @av_bswap16(i16 noundef zeroext %0) #7 {
  %2 = alloca i16, align 2
  store i16 %0, ptr %2, align 2, !tbaa !210
  %3 = load i16, ptr %2, align 2, !tbaa !210
  %4 = zext i16 %3 to i32
  %5 = ashr i32 %4, 8
  %6 = load i16, ptr %2, align 2, !tbaa !210
  %7 = zext i16 %6 to i32
  %8 = shl i32 %7, 8
  %9 = or i32 %5, %8
  %10 = trunc i32 %9 to i16
  store i16 %10, ptr %2, align 2, !tbaa !210
  %11 = load i16, ptr %2, align 2, !tbaa !210
  ret i16 %11
}

; Function Attrs: alwaysinline nounwind uwtable
define internal i32 @bytestream_get_be16(ptr noundef %0) #8 {
  %2 = alloca ptr, align 8
  store ptr %0, ptr %2, align 8, !tbaa !333
  %3 = load ptr, ptr %2, align 8, !tbaa !333
  %4 = load ptr, ptr %3, align 8, !tbaa !80
  %5 = getelementptr inbounds i8, ptr %4, i64 2
  store ptr %5, ptr %3, align 8, !tbaa !80
  %6 = load ptr, ptr %2, align 8, !tbaa !333
  %7 = load ptr, ptr %6, align 8, !tbaa !80
  %8 = getelementptr inbounds i8, ptr %7, i64 -2
  %9 = load i16, ptr %8, align 1, !tbaa !136
  %10 = call zeroext i16 @av_bswap16(i16 noundef zeroext %9) #12
  %11 = zext i16 %10 to i32
  ret i32 %11
}

; Function Attrs: alwaysinline nounwind uwtable
define internal i32 @vpx_rac_renorm(ptr noundef %0) #8 {
  %2 = alloca ptr, align 8
  %3 = alloca i32, align 4
  %4 = alloca i32, align 4
  %5 = alloca i32, align 4
  store ptr %0, ptr %2, align 8, !tbaa !219
  call void @llvm.lifetime.start.p0(i64 4, ptr %3) #11
  %6 = load ptr, ptr %2, align 8, !tbaa !219
  %7 = getelementptr inbounds nuw %struct.VPXRangeCoder, ptr %6, i32 0, i32 0
  %8 = load i32, ptr %7, align 8, !tbaa !280
  %9 = sext i32 %8 to i64
  %10 = getelementptr inbounds [256 x i8], ptr @ff_vpx_norm_shift, i64 0, i64 %9
  %11 = load i8, ptr %10, align 1, !tbaa !136
  %12 = zext i8 %11 to i32
  store i32 %12, ptr %3, align 4, !tbaa !31
  call void @llvm.lifetime.start.p0(i64 4, ptr %4) #11
  %13 = load ptr, ptr %2, align 8, !tbaa !219
  %14 = getelementptr inbounds nuw %struct.VPXRangeCoder, ptr %13, i32 0, i32 1
  %15 = load i32, ptr %14, align 4, !tbaa !330
  store i32 %15, ptr %4, align 4, !tbaa !31
  call void @llvm.lifetime.start.p0(i64 4, ptr %5) #11
  %16 = load ptr, ptr %2, align 8, !tbaa !219
  %17 = getelementptr inbounds nuw %struct.VPXRangeCoder, ptr %16, i32 0, i32 4
  %18 = load i32, ptr %17, align 8, !tbaa !281
  store i32 %18, ptr %5, align 4, !tbaa !31
  %19 = load i32, ptr %3, align 4, !tbaa !31
  %20 = load ptr, ptr %2, align 8, !tbaa !219
  %21 = getelementptr inbounds nuw %struct.VPXRangeCoder, ptr %20, i32 0, i32 0
  %22 = load i32, ptr %21, align 8, !tbaa !280
  %23 = shl i32 %22, %19
  store i32 %23, ptr %21, align 8, !tbaa !280
  %24 = load i32, ptr %3, align 4, !tbaa !31
  %25 = load i32, ptr %5, align 4, !tbaa !31
  %26 = shl i32 %25, %24
  store i32 %26, ptr %5, align 4, !tbaa !31
  %27 = load i32, ptr %3, align 4, !tbaa !31
  %28 = load i32, ptr %4, align 4, !tbaa !31
  %29 = add nsw i32 %28, %27
  store i32 %29, ptr %4, align 4, !tbaa !31
  %30 = load i32, ptr %4, align 4, !tbaa !31
  %31 = icmp sge i32 %30, 0
  br i1 %31, label %32, label %50

32:                                               ; preds = %1
  %33 = load ptr, ptr %2, align 8, !tbaa !219
  %34 = getelementptr inbounds nuw %struct.VPXRangeCoder, ptr %33, i32 0, i32 2
  %35 = load ptr, ptr %34, align 8, !tbaa !331
  %36 = load ptr, ptr %2, align 8, !tbaa !219
  %37 = getelementptr inbounds nuw %struct.VPXRangeCoder, ptr %36, i32 0, i32 3
  %38 = load ptr, ptr %37, align 8, !tbaa !332
  %39 = icmp ult ptr %35, %38
  br i1 %39, label %40, label %50

40:                                               ; preds = %32
  %41 = load ptr, ptr %2, align 8, !tbaa !219
  %42 = getelementptr inbounds nuw %struct.VPXRangeCoder, ptr %41, i32 0, i32 2
  %43 = call i32 @bytestream_get_be16(ptr noundef %42)
  %44 = load i32, ptr %4, align 4, !tbaa !31
  %45 = shl i32 %43, %44
  %46 = load i32, ptr %5, align 4, !tbaa !31
  %47 = or i32 %46, %45
  store i32 %47, ptr %5, align 4, !tbaa !31
  %48 = load i32, ptr %4, align 4, !tbaa !31
  %49 = sub nsw i32 %48, 16
  store i32 %49, ptr %4, align 4, !tbaa !31
  br label %50

50:                                               ; preds = %40, %32, %1
  %51 = load i32, ptr %4, align 4, !tbaa !31
  %52 = load ptr, ptr %2, align 8, !tbaa !219
  %53 = getelementptr inbounds nuw %struct.VPXRangeCoder, ptr %52, i32 0, i32 1
  store i32 %51, ptr %53, align 4, !tbaa !330
  %54 = load i32, ptr %5, align 4, !tbaa !31
  call void @llvm.lifetime.end.p0(i64 4, ptr %5) #11
  call void @llvm.lifetime.end.p0(i64 4, ptr %4) #11
  call void @llvm.lifetime.end.p0(i64 4, ptr %3) #11
  ret i32 %54
}

; Function Attrs: alwaysinline nounwind uwtable
define internal i32 @vpx_rac_get_prob(ptr noundef %0, i8 noundef zeroext %1) #8 {
  %3 = alloca ptr, align 8
  %4 = alloca i8, align 1
  %5 = alloca i32, align 4
  %6 = alloca i32, align 4
  %7 = alloca i32, align 4
  %8 = alloca i32, align 4
  store ptr %0, ptr %3, align 8, !tbaa !219
  store i8 %1, ptr %4, align 1, !tbaa !136
  call void @llvm.lifetime.start.p0(i64 4, ptr %5) #11
  %9 = load ptr, ptr %3, align 8, !tbaa !219
  %10 = call i32 @vpx_rac_renorm(ptr noundef %9)
  store i32 %10, ptr %5, align 4, !tbaa !31
  call void @llvm.lifetime.start.p0(i64 4, ptr %6) #11
  %11 = load ptr, ptr %3, align 8, !tbaa !219
  %12 = getelementptr inbounds nuw %struct.VPXRangeCoder, ptr %11, i32 0, i32 0
  %13 = load i32, ptr %12, align 8, !tbaa !280
  %14 = sub nsw i32 %13, 1
  %15 = load i8, ptr %4, align 1, !tbaa !136
  %16 = zext i8 %15 to i32
  %17 = mul nsw i32 %14, %16
  %18 = ashr i32 %17, 8
  %19 = add nsw i32 1, %18
  store i32 %19, ptr %6, align 4, !tbaa !31
  call void @llvm.lifetime.start.p0(i64 4, ptr %7) #11
  %20 = load i32, ptr %6, align 4, !tbaa !31
  %21 = shl i32 %20, 16
  store i32 %21, ptr %7, align 4, !tbaa !31
  call void @llvm.lifetime.start.p0(i64 4, ptr %8) #11
  %22 = load i32, ptr %5, align 4, !tbaa !31
  %23 = load i32, ptr %7, align 4, !tbaa !31
  %24 = icmp uge i32 %22, %23
  %25 = zext i1 %24 to i32
  store i32 %25, ptr %8, align 4, !tbaa !31
  %26 = load i32, ptr %8, align 4, !tbaa !31
  %27 = icmp ne i32 %26, 0
  br i1 %27, label %28, label %34

28:                                               ; preds = %2
  %29 = load ptr, ptr %3, align 8, !tbaa !219
  %30 = getelementptr inbounds nuw %struct.VPXRangeCoder, ptr %29, i32 0, i32 0
  %31 = load i32, ptr %30, align 8, !tbaa !280
  %32 = load i32, ptr %6, align 4, !tbaa !31
  %33 = sub i32 %31, %32
  br label %36

34:                                               ; preds = %2
  %35 = load i32, ptr %6, align 4, !tbaa !31
  br label %36

36:                                               ; preds = %34, %28
  %37 = phi i32 [ %33, %28 ], [ %35, %34 ]
  %38 = load ptr, ptr %3, align 8, !tbaa !219
  %39 = getelementptr inbounds nuw %struct.VPXRangeCoder, ptr %38, i32 0, i32 0
  store i32 %37, ptr %39, align 8, !tbaa !280
  %40 = load i32, ptr %8, align 4, !tbaa !31
  %41 = icmp ne i32 %40, 0
  br i1 %41, label %42, label %46

42:                                               ; preds = %36
  %43 = load i32, ptr %5, align 4, !tbaa !31
  %44 = load i32, ptr %7, align 4, !tbaa !31
  %45 = sub i32 %43, %44
  br label %48

46:                                               ; preds = %36
  %47 = load i32, ptr %5, align 4, !tbaa !31
  br label %48

48:                                               ; preds = %46, %42
  %49 = phi i32 [ %45, %42 ], [ %47, %46 ]
  %50 = load ptr, ptr %3, align 8, !tbaa !219
  %51 = getelementptr inbounds nuw %struct.VPXRangeCoder, ptr %50, i32 0, i32 4
  store i32 %49, ptr %51, align 8, !tbaa !281
  %52 = load i32, ptr %8, align 4, !tbaa !31
  call void @llvm.lifetime.end.p0(i64 4, ptr %8) #11
  call void @llvm.lifetime.end.p0(i64 4, ptr %7) #11
  call void @llvm.lifetime.end.p0(i64 4, ptr %6) #11
  call void @llvm.lifetime.end.p0(i64 4, ptr %5) #11
  ret i32 %52
}

; Function Attrs: alwaysinline nounwind uwtable
define internal i32 @vp89_rac_get(ptr noundef %0) #8 {
  %2 = alloca ptr, align 8
  store ptr %0, ptr %2, align 8, !tbaa !219
  %3 = load ptr, ptr %2, align 8, !tbaa !219
  %4 = call i32 @vpx_rac_get_prob(ptr noundef %3, i8 noundef zeroext -128)
  ret i32 %4
}

; Function Attrs: nounwind uwtable
define internal i32 @vp89_rac_get_uint(ptr noundef %0, i32 noundef %1) #0 {
  %3 = alloca ptr, align 8
  %4 = alloca i32, align 4
  %5 = alloca i32, align 4
  store ptr %0, ptr %3, align 8, !tbaa !219
  store i32 %1, ptr %4, align 4, !tbaa !31
  call void @llvm.lifetime.start.p0(i64 4, ptr %5) #11
  store i32 0, ptr %5, align 4, !tbaa !31
  br label %6

6:                                                ; preds = %10, %2
  %7 = load i32, ptr %4, align 4, !tbaa !31
  %8 = add nsw i32 %7, -1
  store i32 %8, ptr %4, align 4, !tbaa !31
  %9 = icmp ne i32 %7, 0
  br i1 %9, label %10, label %16

10:                                               ; preds = %6
  %11 = load i32, ptr %5, align 4, !tbaa !31
  %12 = shl i32 %11, 1
  %13 = load ptr, ptr %3, align 8, !tbaa !219
  %14 = call i32 @vp89_rac_get(ptr noundef %13)
  %15 = or i32 %12, %14
  store i32 %15, ptr %5, align 4, !tbaa !31
  br label %6, !llvm.loop !327

16:                                               ; preds = %6
  %17 = load i32, ptr %5, align 4, !tbaa !31
  call void @llvm.lifetime.end.p0(i64 4, ptr %5) #11
  ret i32 %17
}